target datalayout = "e-m:e-p270:32:32-p271:32:32-p272:64:64-i64:64-i128:128-f80:128-n8:16:32:64-S128"
target triple = "x86_64-pc-linux-gnu"

@.str.7 = private unnamed_addr constant [3 x i8] c"w+\00", align 1
@stderr = external global ptr, align 8
@.str.8 = private unnamed_addr constant [28 x i8] c"Failed to open file %s: %s\0A\00", align 1
@.str.9 = private unnamed_addr constant [4 x i8] c"/*\0A\00", align 1
@.str.10 = private unnamed_addr constant [48 x i8] c" * This file was autogenerated by TinyMPC on %s\00", align 1
@.str.11 = private unnamed_addr constant [6 x i8] c" */\0A\0A\00", align 1
@.str.14 = private unnamed_addr constant [20 x i8] c"#ifdef __cplusplus\0A\00", align 1
@.str.15 = private unnamed_addr constant [14 x i8] c"extern \22C\22 {\0A\00", align 1
@.str.16 = private unnamed_addr constant [9 x i8] c"#endif\0A\0A\00", align 1
@.str.19 = private unnamed_addr constant [8 x i8] c"#endif\0A\00", align 1
@.str.81 = private unnamed_addr constant [21 x i8] c"%s/src/tiny_main.cpp\00", align 1
@.str.82 = private unnamed_addr constant [22 x i8] c"#include <iostream>\0A\0A\00", align 1
@.str.83 = private unnamed_addr constant [33 x i8] c"#include <tinympc/tiny_api.hpp>\0A\00", align 1
@.str.84 = private unnamed_addr constant [35 x i8] c"#include <tinympc/tiny_data.hpp>\0A\0A\00", align 1
@.str.85 = private unnamed_addr constant [24 x i8] c"using namespace Eigen;\0A\00", align 1
@.str.86 = private unnamed_addr constant [48 x i8] c"IOFormat TinyFmt(4, 0, \22, \22, \22\\n\22, \22[\22, \22]\22);\0A\0A\00", align 1
@.str.87 = private unnamed_addr constant [12 x i8] c"int main()\0A\00", align 1
@.str.88 = private unnamed_addr constant [3 x i8] c"{\0A\00", align 1
@.str.89 = private unnamed_addr constant [20 x i8] c"\09int exitflag = 1;\0A\00", align 1
@.str.90 = private unnamed_addr constant [28 x i8] c"\09// Double check some data\0A\00", align 1
@.str.91 = private unnamed_addr constant [63 x i8] c"\09std::cout << \22rho: \22 << tiny_solver.cache->rho << std::endl;\0A\00", align 1
@.str.92 = private unnamed_addr constant [79 x i8] c"\09std::cout << \22\\nmax iters: \22 << tiny_solver.settings->max_iter << std::endl;\0A\00", align 1
@.str.93 = private unnamed_addr constant [102 x i8] c"\09std::cout << \22\\nState transition matrix:\\n\22 << tiny_solver.work->Adyn.format(TinyFmt) << std::endl;\0A\00", align 1
@.str.94 = private unnamed_addr constant [100 x i8] c"\09std::cout << \22\\nInput/control matrix:\\n\22 << tiny_solver.work->Bdyn.format(TinyFmt) << std::endl;\0A\0A\00", align 1
@.str.95 = private unnamed_addr constant [110 x i8] c"\09// Visit https://tinympc.org/ to see how to set the initial condition and update the reference trajectory.\0A\0A\00", align 1
@.str.96 = private unnamed_addr constant [47 x i8] c"\09std::cout << \22\\nSolving...\\n\22 << std::endl;\0A\0A\00", align 1
@.str.97 = private unnamed_addr constant [40 x i8] c"\09exitflag = tiny_solve(&tiny_solver);\0A\0A\00", align 1
@.str.98 = private unnamed_addr constant [64 x i8] c"\09if (exitflag == 0) printf(\22Hooray! Solved with no error!\\n\22);\0A\00", align 1
@.str.99 = private unnamed_addr constant [48 x i8] c"\09else printf(\22Oops! Something went wrong!\\n\22);\0A\00", align 1
@.str.100 = private unnamed_addr constant [12 x i8] c"\09return 0;\0A\00", align 1
@.str.101 = private unnamed_addr constant [4 x i8] c"}\0A\0A\00", align 1
@.str.102 = private unnamed_addr constant [20 x i8] c"} /* extern \22C\22 */\0A\00", align 1
@.str.103 = private unnamed_addr constant [38 x i8] c"Example tinympc main generated in %s\0A\00", align 1

; Function Attrs: mustprogress uwtable
define i32 @codegen_example(ptr noundef %0, i32 noundef %1) #6 {
  %3 = alloca ptr, align 8
  %4 = alloca i32, align 4
  %5 = alloca [2048 x i8], align 16
  %6 = alloca ptr, align 8
  %7 = alloca i64, align 8
  store ptr %0, ptr %3, align 8, !tbaa !15
  store i32 %1, ptr %4, align 4, !tbaa !17
  call void @llvm.lifetime.start.p0(i64 2048, ptr %5) #3
  call void @llvm.lifetime.start.p0(i64 8, ptr %6) #3
  %8 = getelementptr inbounds [2048 x i8], ptr %5, i64 0, i64 0
  %9 = load ptr, ptr %3, align 8, !tbaa !15
  %10 = call i32 (ptr, ptr, ...) @sprintf(ptr noundef %8, ptr noundef @.str.81, ptr noundef %9) #3
  %11 = getelementptr inbounds [2048 x i8], ptr %5, i64 0, i64 0
  %12 = call noalias ptr @fopen(ptr noundef %11, ptr noundef @.str.7)
  store ptr %12, ptr %6, align 8, !tbaa !23
  %13 = load ptr, ptr %6, align 8, !tbaa !23
  %14 = icmp eq ptr %13, null
  br i1 %14, label %15, label %22

15:                                               ; preds = %2
  %16 = load ptr, ptr @stderr, align 8, !tbaa !23
  %17 = getelementptr inbounds [2048 x i8], ptr %5, i64 0, i64 0
  %18 = call ptr @__errno_location() #19
  %19 = load i32, ptr %18, align 4, !tbaa !17
  %20 = call ptr @strerror(i32 noundef %19) #3
  %21 = call i32 (ptr, ptr, ...) @fprintf(ptr noundef %16, ptr noundef @.str.8, ptr noundef %17, ptr noundef %20) #3
  call void @exit(i32 noundef 1) #20
  unreachable

22:                                               ; preds = %2
  call void @llvm.lifetime.start.p0(i64 8, ptr %7) #3
  %23 = call i64 @time(ptr noundef %7) #3
  %24 = load ptr, ptr %6, align 8, !tbaa !23
  %25 = call i32 (ptr, ptr, ...) @fprintf(ptr noundef %24, ptr noundef @.str.9) #3
  %26 = load ptr, ptr %6, align 8, !tbaa !23
  %27 = call ptr @ctime(ptr noundef %7) #3
  %28 = call i32 (ptr, ptr, ...) @fprintf(ptr noundef %26, ptr noundef @.str.10, ptr noundef %27) #3
  %29 = load ptr, ptr %6, align 8, !tbaa !23
  %30 = call i32 (ptr, ptr, ...) @fprintf(ptr noundef %29, ptr noundef @.str.11) #3
  %31 = load ptr, ptr %6, align 8, !tbaa !23
  %32 = call i32 (ptr, ptr, ...) @fprintf(ptr noundef %31, ptr noundef @.str.82) #3
  %33 = load ptr, ptr %6, align 8, !tbaa !23
  %34 = call i32 (ptr, ptr, ...) @fprintf(ptr noundef %33, ptr noundef @.str.83) #3
  %35 = load ptr, ptr %6, align 8, !tbaa !23
  %36 = call i32 (ptr, ptr, ...) @fprintf(ptr noundef %35, ptr noundef @.str.84) #3
  %37 = load ptr, ptr %6, align 8, !tbaa !23
  %38 = call i32 (ptr, ptr, ...) @fprintf(ptr noundef %37, ptr noundef @.str.85) #3
  %39 = load ptr, ptr %6, align 8, !tbaa !23
  %40 = call i32 (ptr, ptr, ...) @fprintf(ptr noundef %39, ptr noundef @.str.86) #3
  %41 = load ptr, ptr %6, align 8, !tbaa !23
  %42 = call i32 (ptr, ptr, ...) @fprintf(ptr noundef %41, ptr noundef @.str.14) #3
  %43 = load ptr, ptr %6, align 8, !tbaa !23
  %44 = call i32 (ptr, ptr, ...) @fprintf(ptr noundef %43, ptr noundef @.str.15) #3
  %45 = load ptr, ptr %6, align 8, !tbaa !23
  %46 = call i32 (ptr, ptr, ...) @fprintf(ptr noundef %45, ptr noundef @.str.16) #3
  %47 = load ptr, ptr %6, align 8, !tbaa !23
  %48 = call i32 (ptr, ptr, ...) @fprintf(ptr noundef %47, ptr noundef @.str.87) #3
  %49 = load ptr, ptr %6, align 8, !tbaa !23
  %50 = call i32 (ptr, ptr, ...) @fprintf(ptr noundef %49, ptr noundef @.str.88) #3
  %51 = load ptr, ptr %6, align 8, !tbaa !23
  %52 = call i32 (ptr, ptr, ...) @fprintf(ptr noundef %51, ptr noundef @.str.89) #3
  %53 = load ptr, ptr %6, align 8, !tbaa !23
  %54 = call i32 (ptr, ptr, ...) @fprintf(ptr noundef %53, ptr noundef @.str.90) #3
  %55 = load ptr, ptr %6, align 8, !tbaa !23
  %56 = call i32 (ptr, ptr, ...) @fprintf(ptr noundef %55, ptr noundef @.str.91) #3
  %57 = load ptr, ptr %6, align 8, !tbaa !23
  %58 = call i32 (ptr, ptr, ...) @fprintf(ptr noundef %57, ptr noundef @.str.92) #3
  %59 = load ptr, ptr %6, align 8, !tbaa !23
  %60 = call i32 (ptr, ptr, ...) @fprintf(ptr noundef %59, ptr noundef @.str.93) #3
  %61 = load ptr, ptr %6, align 8, !tbaa !23
  %62 = call i32 (ptr, ptr, ...) @fprintf(ptr noundef %61, ptr noundef @.str.94) #3
  %63 = load ptr, ptr %6, align 8, !tbaa !23
  %64 = call i32 (ptr, ptr, ...) @fprintf(ptr noundef %63, ptr noundef @.str.95) #3
  %65 = load ptr, ptr %6, align 8, !tbaa !23
  %66 = call i32 (ptr, ptr, ...) @fprintf(ptr noundef %65, ptr noundef @.str.96) #3
  %67 = load ptr, ptr %6, align 8, !tbaa !23
  %68 = call i32 (ptr, ptr, ...) @fprintf(ptr noundef %67, ptr noundef @.str.97) #3
  %69 = load ptr, ptr %6, align 8, !tbaa !23
  %70 = call i32 (ptr, ptr, ...) @fprintf(ptr noundef %69, ptr noundef @.str.98) #3
  %71 = load ptr, ptr %6, align 8, !tbaa !23
  %72 = call i32 (ptr, ptr, ...) @fprintf(ptr noundef %71, ptr noundef @.str.99) #3
  %73 = load ptr, ptr %6, align 8, !tbaa !23
  %74 = call i32 (ptr, ptr, ...) @fprintf(ptr noundef %73, ptr noundef @.str.100) #3
  %75 = load ptr, ptr %6, align 8, !tbaa !23
  %76 = call i32 (ptr, ptr, ...) @fprintf(ptr noundef %75, ptr noundef @.str.101) #3
  %77 = load ptr, ptr %6, align 8, !tbaa !23
  %78 = call i32 (ptr, ptr, ...) @fprintf(ptr noundef %77, ptr noundef @.str.14) #3
  %79 = load ptr, ptr %6, align 8, !tbaa !23
  %80 = call i32 (ptr, ptr, ...) @fprintf(ptr noundef %79, ptr noundef @.str.102) #3
  %81 = load ptr, ptr %6, align 8, !tbaa !23
  %82 = call i32 (ptr, ptr, ...) @fprintf(ptr noundef %81, ptr noundef @.str.19) #3
  %83 = load ptr, ptr %6, align 8, !tbaa !23
  %84 = call i32 @fclose(ptr noundef %83)
  %85 = load i32, ptr %4, align 4, !tbaa !17
  %86 = icmp ne i32 %85, 0
  br i1 %86, label %87, label %90

87:                                               ; preds = %22
  %88 = getelementptr inbounds [2048 x i8], ptr %5, i64 0, i64 0
  %89 = call i32 (ptr, ...) @printf(ptr noundef @.str.103, ptr noundef %88)
  br label %90

90:                                               ; preds = %87, %22
  call void @llvm.lifetime.end.p0(i64 8, ptr %7) #3
  call void @llvm.lifetime.end.p0(i64 8, ptr %6) #3
  call void @llvm.lifetime.end.p0(i64 2048, ptr %5) #3
  ret i32 0
}