; Function Attrs: mustprogress nounwind uwtable
define noundef i32 @codegen_example(ptr noundef %0, i32 noundef %1) local_unnamed_addr #5 {
  %3 = alloca [2048 x i8], align 16
  %4 = alloca i64, align 8
  call void @llvm.lifetime.start.p0(i64 2048, ptr nonnull %3) #21
  %5 = call i32 (ptr, ptr, ...) @sprintf(ptr noundef nonnull dereferenceable(1) %3, ptr noundef nonnull dereferenceable(1) @.str.81, ptr noundef %0) #21
  %6 = call noalias ptr @fopen(ptr noundef nonnull %3, ptr noundef nonnull @.str.7)
  %7 = icmp eq ptr %6, null
  br i1 %7, label %8, label %14

8:                                                ; preds = %2
  %9 = load ptr, ptr @stderr, align 8, !tbaa !33
  %10 = tail call ptr @__errno_location() #22
  %11 = load i32, ptr %10, align 4, !tbaa !35
  %12 = tail call ptr @strerror(i32 noundef %11) #21
  %13 = call i32 (ptr, ptr, ...) @fprintf(ptr noundef %9, ptr noundef nonnull @.str.8, ptr noundef nonnull %3, ptr noundef %12) #23
  call void @exit(i32 noundef 1) #24
  unreachable

14:                                               ; preds = %2
  call void @llvm.lifetime.start.p0(i64 8, ptr nonnull %4) #21
  %15 = call i64 @time(ptr noundef nonnull %4) #21
  %16 = call i64 @fwrite(ptr nonnull @.str.9, i64 3, i64 1, ptr nonnull %6)
  %17 = call ptr @ctime(ptr noundef nonnull %4) #21
  %18 = call i32 (ptr, ptr, ...) @fprintf(ptr noundef nonnull %6, ptr noundef nonnull @.str.10, ptr noundef %17) #21
  %19 = call i64 @fwrite(ptr nonnull @.str.11, i64 5, i64 1, ptr nonnull %6)
  %20 = call i64 @fwrite(ptr nonnull @.str.82, i64 21, i64 1, ptr nonnull %6)
  %21 = call i64 @fwrite(ptr nonnull @.str.83, i64 32, i64 1, ptr nonnull %6)
  %22 = call i64 @fwrite(ptr nonnull @.str.84, i64 34, i64 1, ptr nonnull %6)
  %23 = call i64 @fwrite(ptr nonnull @.str.85, i64 23, i64 1, ptr nonnull %6)
  %24 = call i64 @fwrite(ptr nonnull @.str.86, i64 47, i64 1, ptr nonnull %6)
  %25 = call i64 @fwrite(ptr nonnull @.str.14, i64 19, i64 1, ptr nonnull %6)
  %26 = call i64 @fwrite(ptr nonnull @.str.15, i64 13, i64 1, ptr nonnull %6)
  %27 = call i64 @fwrite(ptr nonnull @.str.16, i64 8, i64 1, ptr nonnull %6)
  %28 = call i64 @fwrite(ptr nonnull @.str.87, i64 11, i64 1, ptr nonnull %6)
  %29 = call i64 @fwrite(ptr nonnull @.str.88, i64 2, i64 1, ptr nonnull %6)
  %30 = call i64 @fwrite(ptr nonnull @.str.89, i64 19, i64 1, ptr nonnull %6)
  %31 = call i64 @fwrite(ptr nonnull @.str.90, i64 27, i64 1, ptr nonnull %6)
  %32 = call i64 @fwrite(ptr nonnull @.str.91, i64 62, i64 1, ptr nonnull %6)
  %33 = call i64 @fwrite(ptr nonnull @.str.92, i64 78, i64 1, ptr nonnull %6)
  %34 = call i64 @fwrite(ptr nonnull @.str.93, i64 101, i64 1, ptr nonnull %6)
  %35 = call i64 @fwrite(ptr nonnull @.str.94, i64 99, i64 1, ptr nonnull %6)
  %36 = call i64 @fwrite(ptr nonnull @.str.95, i64 109, i64 1, ptr nonnull %6)
  %37 = call i64 @fwrite(ptr nonnull @.str.96, i64 46, i64 1, ptr nonnull %6)
  %38 = call i64 @fwrite(ptr nonnull @.str.97, i64 39, i64 1, ptr nonnull %6)
  %39 = call i64 @fwrite(ptr nonnull @.str.98, i64 63, i64 1, ptr nonnull %6)
  %40 = call i64 @fwrite(ptr nonnull @.str.99, i64 47, i64 1, ptr nonnull %6)
  %41 = call i64 @fwrite(ptr nonnull @.str.100, i64 11, i64 1, ptr nonnull %6)
  %42 = call i64 @fwrite(ptr nonnull @.str.101, i64 3, i64 1, ptr nonnull %6)
  %43 = call i64 @fwrite(ptr nonnull @.str.14, i64 19, i64 1, ptr nonnull %6)
  %44 = call i64 @fwrite(ptr nonnull @.str.102, i64 19, i64 1, ptr nonnull %6)
  %45 = call i64 @fwrite(ptr nonnull @.str.19, i64 7, i64 1, ptr nonnull %6)
  %46 = call i32 @fclose(ptr noundef nonnull %6)
  %.not = icmp eq i32 %1, 0
  br i1 %.not, label %49, label %47

47:                                               ; preds = %14
  %48 = call i32 (ptr, ...) @printf(ptr noundef nonnull dereferenceable(1) @.str.103, ptr noundef nonnull %3)
  br label %49

49:                                               ; preds = %47, %14
  call void @llvm.lifetime.end.p0(i64 8, ptr nonnull %4) #21
  call void @llvm.lifetime.end.p0(i64 2048, ptr nonnull %3) #21
  ret i32 0
}